target datalayout = "e-m:e-p270:32:32-p271:32:32-p272:64:64-i64:64-i128:128-f80:128-n8:16:32:64-S128"
target triple = "x86_64-pc-linux-gnu"

%struct._zend_executor_globals = type { %struct._zval_struct, %struct._zval_struct, [32 x ptr], ptr, ptr, %struct._zend_array, %struct._zend_array, ptr, i32, i32, ptr, ptr, ptr, ptr, ptr, ptr, i64, ptr, ptr, i32, i32, i64, i32, i32, i32, i8, i8, %struct.zend_atomic_bool_s, %struct.zend_atomic_bool_s, ptr, i64, ptr, ptr, %struct._zend_array, %struct._zend_array, i32, i8, %struct._zval_struct, %struct._zval_struct, %struct._zend_stack, %struct._zend_stack, %struct._zend_stack, ptr, i32, i32, i64, ptr, ptr, ptr, %struct._zend_objects_store, ptr, ptr, ptr, [3 x %struct._zend_op], ptr, i8, i8, i64, i32, i32, ptr, [16 x %struct._HashTableIterator], ptr, %union._zend_function, %struct._zend_op, %struct._zend_array, i64, %struct.zend_get_gc_buffer, ptr, ptr, ptr, i64, i8, i32, ptr, ptr, i64, %struct._zend_call_stack, i64, i64, [6 x ptr] }
%struct.zend_atomic_bool_s = type { i8 }
%struct._zval_struct = type { %union._zend_value, %union.anon.9, %union.anon.12 }
%union._zend_value = type { i64 }
%union.anon.9 = type { i32 }
%union.anon.12 = type { i32 }
%struct._zend_stack = type { i32, i32, i32, ptr }
%struct._zend_objects_store = type { ptr, i32, i32, i32 }
%struct._HashTableIterator = type { ptr, i32, i32 }
%union._zend_function = type { %struct._zend_op_array }
%struct._zend_op_array = type { i8, [3 x i8], i32, ptr, ptr, ptr, i32, i32, ptr, ptr, ptr, ptr, i32, i32, i32, i32, ptr, ptr, ptr, ptr, ptr, i32, i32, ptr, ptr, ptr, i32, i32, i32, i32, ptr, ptr, [6 x ptr] }
%struct._zend_op = type { ptr, %union._znode_op, %union._znode_op, %union._znode_op, i32, i32, i8, i8, i8, i8 }
%union._znode_op = type { i32 }
%struct._zend_array = type { %struct._zend_refcounted_h, %union.anon.1, i32, %union.anon.2, i32, i32, i32, i32, i64, ptr }
%struct._zend_refcounted_h = type { i32, %union.anon.0 }
%union.anon.0 = type { i32 }
%union.anon.1 = type { i32 }
%union.anon.2 = type { ptr }
%struct.zend_get_gc_buffer = type { ptr, ptr, ptr }
%struct._zend_call_stack = type { ptr, i64 }
%struct._dom_prop_handler = type { ptr, ptr }
%struct.zend_type = type { ptr, i32 }
%struct._zend_class_entry = type { i8, ptr, %union.anon, i32, i32, i32, i32, ptr, ptr, ptr, %struct._zend_array, %struct._zend_array, %struct._zend_array, ptr, ptr, ptr, ptr, ptr, ptr, ptr, ptr, ptr, ptr, ptr, ptr, ptr, ptr, ptr, ptr, ptr, ptr, ptr, %union.anon.3, ptr, ptr, ptr, ptr, i32, i32, %union.anon.4, ptr, ptr, ptr, ptr, i32, ptr, ptr, %union.anon.5 }
%union.anon = type { ptr }
%union.anon.3 = type { ptr }
%union.anon.4 = type { ptr }
%union.anon.5 = type { %struct.anon.6 }
%struct.anon.6 = type { ptr, i32, i32 }
%struct._dom_object = type { ptr, ptr, ptr, %struct._zend_object }
%struct._zend_object = type { %struct._zend_refcounted_h, i32, ptr, ptr, ptr, [1 x %struct._zval_struct] }
%struct._zend_string = type { %struct._zend_refcounted_h, i64, i64, [1 x i8] }
%struct._zend_property_info = type { i32, i32, ptr, ptr, ptr, ptr, %struct.zend_type }
%struct._zend_refcounted = type { %struct._zend_refcounted_h }
%struct._zend_execute_data = type { ptr, ptr, ptr, ptr, %struct._zval_struct, ptr, ptr, ptr, ptr }
%struct.anon.13 = type { i8, [3 x i8], i32, ptr, ptr, ptr, i32, i32, ptr, ptr, ptr, ptr, i32 }

@executor_globals = external global %struct._zend_executor_globals, align 8
@.str = private unnamed_addr constant [40 x i8] c"Cannot write read-only property %s::$%s\00", align 1

; Function Attrs: nounwind uwtable
define internal ptr @php_dom_obj_from_obj(ptr noundef %0) #0 {
  %2 = alloca ptr, align 8
  store ptr %0, ptr %2, align 8
  %3 = load ptr, ptr %2, align 8
  %4 = getelementptr inbounds i8, ptr %3, i64 -24
  ret ptr %4
}

; Function Attrs: nounwind uwtable
define hidden ptr @dom_write_property(ptr noundef %0, ptr noundef %1, ptr noundef %2, ptr noundef %3) #0 {
  %5 = alloca ptr, align 8
  %6 = alloca ptr, align 8
  %7 = alloca ptr, align 8
  %8 = alloca ptr, align 8
  %9 = alloca ptr, align 8
  %10 = alloca ptr, align 8
  %11 = alloca ptr, align 8
  %12 = alloca ptr, align 8
  %13 = alloca ptr, align 8
  %14 = alloca ptr, align 8
  %15 = alloca ptr, align 8
  %16 = alloca ptr, align 8
  %17 = alloca ptr, align 8
  %18 = alloca %struct._zval_struct, align 8
  %19 = alloca ptr, align 8
  %20 = alloca ptr, align 8
  %21 = alloca ptr, align 8
  %22 = alloca i32, align 4
  store ptr %0, ptr %11, align 8
  store ptr %1, ptr %12, align 8
  store ptr %2, ptr %13, align 8
  store ptr %3, ptr %14, align 8
  %23 = load ptr, ptr %11, align 8
  %24 = call ptr @php_dom_obj_from_obj(ptr noundef %23)
  store ptr %24, ptr %15, align 8
  store ptr null, ptr %16, align 8
  %25 = load ptr, ptr %15, align 8
  %26 = getelementptr inbounds %struct._dom_object, ptr %25, i32 0, i32 2
  %27 = load ptr, ptr %26, align 8
  %28 = icmp ne ptr %27, null
  br i1 %28, label %29, label %48

29:                                               ; preds = %4
  %30 = load ptr, ptr %15, align 8
  %31 = getelementptr inbounds %struct._dom_object, ptr %30, i32 0, i32 2
  %32 = load ptr, ptr %31, align 8
  %33 = load ptr, ptr %12, align 8
  store ptr %32, ptr %7, align 8
  store ptr %33, ptr %8, align 8
  %34 = load ptr, ptr %7, align 8
  %35 = load ptr, ptr %8, align 8
  %36 = call ptr @zend_hash_find(ptr noundef %34, ptr noundef %35) #12
  store ptr %36, ptr %9, align 8
  %37 = load ptr, ptr %9, align 8
  %38 = icmp ne ptr %37, null
  br i1 %38, label %39, label %45

39:                                               ; preds = %29
  %40 = load ptr, ptr %9, align 8
  %41 = load ptr, ptr %40, align 8
  %42 = icmp ne ptr %41, null
  call void @llvm.assume(i1 %42)
  %43 = load ptr, ptr %9, align 8
  %44 = load ptr, ptr %43, align 8
  store ptr %44, ptr %6, align 8
  br label %46

45:                                               ; preds = %29
  store ptr null, ptr %6, align 8
  br label %46

46:                                               ; preds = %45, %39
  %47 = load ptr, ptr %6, align 8
  store ptr %47, ptr %16, align 8
  br label %48

48:                                               ; preds = %46, %4
  %49 = load ptr, ptr %16, align 8
  %50 = icmp ne ptr %49, null
  br i1 %50, label %51, label %135

51:                                               ; preds = %48
  %52 = load ptr, ptr %16, align 8
  %53 = getelementptr inbounds %struct._dom_prop_handler, ptr %52, i32 0, i32 1
  %54 = load ptr, ptr %53, align 8
  %55 = icmp ne ptr %54, null
  br i1 %55, label %67, label %56

56:                                               ; preds = %51
  %57 = load ptr, ptr %11, align 8
  %58 = getelementptr inbounds %struct._zend_object, ptr %57, i32 0, i32 2
  %59 = load ptr, ptr %58, align 8
  %60 = getelementptr inbounds %struct._zend_class_entry, ptr %59, i32 0, i32 1
  %61 = load ptr, ptr %60, align 8
  %62 = getelementptr inbounds %struct._zend_string, ptr %61, i32 0, i32 3
  %63 = getelementptr inbounds [1 x i8], ptr %62, i64 0, i64 0
  %64 = load ptr, ptr %12, align 8
  %65 = getelementptr inbounds %struct._zend_string, ptr %64, i32 0, i32 3
  %66 = getelementptr inbounds [1 x i8], ptr %65, i64 0, i64 0
  call void (ptr, ptr, ...) @zend_throw_error(ptr noundef null, ptr noundef @.str, ptr noundef %63, ptr noundef %66)
  store ptr getelementptr inbounds (%struct._zend_executor_globals, ptr @executor_globals, i32 0, i32 1), ptr %10, align 8
  br label %141

67:                                               ; preds = %51
  %68 = load ptr, ptr %11, align 8
  %69 = getelementptr inbounds %struct._zend_object, ptr %68, i32 0, i32 2
  %70 = load ptr, ptr %69, align 8
  %71 = load ptr, ptr %12, align 8
  %72 = call ptr @zend_get_property_info(ptr noundef %70, ptr noundef %71, i32 noundef 1)
  store ptr %72, ptr %17, align 8
  %73 = load ptr, ptr %17, align 8
  %74 = icmp ne ptr %73, null
  br i1 %74, label %75, label %126

75:                                               ; preds = %67
  %76 = load ptr, ptr %17, align 8
  %77 = getelementptr inbounds %struct._zend_property_info, ptr %76, i32 0, i32 6
  %78 = getelementptr inbounds %struct.zend_type, ptr %77, i32 0, i32 1
  %79 = load i32, ptr %78, align 8
  %80 = and i32 %79, 33554431
  %81 = icmp ne i32 %80, 0
  br i1 %81, label %82, label %126

82:                                               ; preds = %75
  br label %83

83:                                               ; preds = %82
  store ptr %18, ptr %19, align 8
  %84 = load ptr, ptr %13, align 8
  store ptr %84, ptr %20, align 8
  %85 = load ptr, ptr %20, align 8
  %86 = getelementptr inbounds %struct._zval_struct, ptr %85, i32 0, i32 0
  %87 = load ptr, ptr %86, align 8
  store ptr %87, ptr %21, align 8
  %88 = load ptr, ptr %20, align 8
  %89 = getelementptr inbounds %struct._zval_struct, ptr %88, i32 0, i32 1
  %90 = load i32, ptr %89, align 8
  store i32 %90, ptr %22, align 4
  br label %91

91:                                               ; preds = %83
  %92 = load ptr, ptr %21, align 8
  %93 = load ptr, ptr %19, align 8
  %94 = getelementptr inbounds %struct._zval_struct, ptr %93, i32 0, i32 0
  store ptr %92, ptr %94, align 8
  %95 = load i32, ptr %22, align 4
  %96 = load ptr, ptr %19, align 8
  %97 = getelementptr inbounds %struct._zval_struct, ptr %96, i32 0, i32 1
  store i32 %95, ptr %97, align 8
  br label %98

98:                                               ; preds = %91
  %99 = load i32, ptr %22, align 4
  %100 = and i32 %99, 65280
  %101 = icmp ne i32 %100, 0
  br i1 %101, label %102, label %108

102:                                              ; preds = %98
  %103 = load ptr, ptr %21, align 8
  %104 = getelementptr inbounds %struct._zend_refcounted, ptr %103, i32 0, i32 0
  store ptr %104, ptr %5, align 8
  %105 = load ptr, ptr %5, align 8
  %106 = load i32, ptr %105, align 4
  %107 = add i32 %106, 1
  store i32 %107, ptr %105, align 4
  br label %108

108:                                              ; preds = %102, %98
  br label %109

109:                                              ; preds = %108
  %110 = load ptr, ptr %17, align 8
  %111 = load ptr, ptr getelementptr inbounds (%struct._zend_executor_globals, ptr @executor_globals, i32 0, i32 17), align 8
  %112 = getelementptr inbounds %struct._zend_execute_data, ptr %111, i32 0, i32 3
  %113 = load ptr, ptr %112, align 8
  %114 = getelementptr inbounds %struct.anon.13, ptr %113, i32 0, i32 2
  %115 = load i32, ptr %114, align 4
  %116 = and i32 %115, -2147483648
  %117 = icmp ne i32 %116, 0
  %118 = call zeroext i1 @zend_verify_property_type(ptr noundef %110, ptr noundef %18, i1 noundef zeroext %117)
  br i1 %118, label %120, label %119

119:                                              ; preds = %109
  call void @zval_ptr_dtor(ptr noundef %18)
  store ptr getelementptr inbounds (%struct._zend_executor_globals, ptr @executor_globals, i32 0, i32 1), ptr %10, align 8
  br label %141

120:                                              ; preds = %109
  %121 = load ptr, ptr %16, align 8
  %122 = getelementptr inbounds %struct._dom_prop_handler, ptr %121, i32 0, i32 1
  %123 = load ptr, ptr %122, align 8
  %124 = load ptr, ptr %15, align 8
  %125 = call i32 %123(ptr noundef %124, ptr noundef %18)
  call void @zval_ptr_dtor(ptr noundef %18)
  br label %133

126:                                              ; preds = %75, %67
  %127 = load ptr, ptr %16, align 8
  %128 = getelementptr inbounds %struct._dom_prop_handler, ptr %127, i32 0, i32 1
  %129 = load ptr, ptr %128, align 8
  %130 = load ptr, ptr %15, align 8
  %131 = load ptr, ptr %13, align 8
  %132 = call i32 %129(ptr noundef %130, ptr noundef %131)
  br label %133

133:                                              ; preds = %126, %120
  %134 = load ptr, ptr %13, align 8
  store ptr %134, ptr %10, align 8
  br label %141

135:                                              ; preds = %48
  %136 = load ptr, ptr %11, align 8
  %137 = load ptr, ptr %12, align 8
  %138 = load ptr, ptr %13, align 8
  %139 = load ptr, ptr %14, align 8
  %140 = call ptr @zend_std_write_property(ptr noundef %136, ptr noundef %137, ptr noundef %138, ptr noundef %139)
  store ptr %140, ptr %10, align 8
  br label %141

141:                                              ; preds = %135, %133, %119, %56
  %142 = load ptr, ptr %10, align 8
  ret ptr %142
}