; Function Attrs: nounwind uwtable
define hidden ptr @dom_write_property(ptr noundef %0, ptr noundef %1, ptr noundef %2, ptr noundef %3) #1 {
  %5 = alloca %struct._zval_struct, align 8
  %6 = getelementptr inbounds i8, ptr %0, i64 -24
  %7 = getelementptr inbounds i8, ptr %0, i64 -8
  %8 = load ptr, ptr %7, align 8
  %.not = icmp eq ptr %8, null
  br i1 %.not, label %52, label %9

9:                                                ; preds = %4
  %10 = tail call ptr @zend_hash_find(ptr noundef nonnull %8, ptr noundef %1) #16
  %.not44 = icmp eq ptr %10, null
  br i1 %.not44, label %52, label %11

11:                                               ; preds = %9
  %12 = load ptr, ptr %10, align 8, !nonnull !4, !noundef !4
  %13 = getelementptr inbounds i8, ptr %12, i64 8
  %14 = load ptr, ptr %13, align 8
  %.not46 = icmp eq ptr %14, null
  %15 = getelementptr inbounds i8, ptr %0, i64 16
  %16 = load ptr, ptr %15, align 8
  br i1 %.not46, label %17, label %22

17:                                               ; preds = %11
  %18 = getelementptr inbounds i8, ptr %16, i64 8
  %19 = load ptr, ptr %18, align 8
  %20 = getelementptr inbounds i8, ptr %19, i64 24
  %21 = getelementptr inbounds i8, ptr %1, i64 24
  tail call void (ptr, ptr, ...) @zend_throw_error(ptr noundef null, ptr noundef nonnull @.str, ptr noundef nonnull %20, ptr noundef nonnull %21) #16
  br label %54

22:                                               ; preds = %11
  %23 = tail call ptr @zend_get_property_info(ptr noundef %16, ptr noundef %1, i32 noundef 1) #16
  %.not47 = icmp eq ptr %23, null
  br i1 %.not47, label %49, label %24

24:                                               ; preds = %22
  %25 = getelementptr inbounds i8, ptr %23, i64 48
  %26 = load i32, ptr %25, align 8
  %27 = and i32 %26, 33554431
  %.not48 = icmp eq i32 %27, 0
  br i1 %.not48, label %49, label %28

28:                                               ; preds = %24
  %29 = load ptr, ptr %2, align 8
  %30 = getelementptr inbounds i8, ptr %2, i64 8
  %31 = load i32, ptr %30, align 8
  store ptr %29, ptr %5, align 8
  %32 = getelementptr inbounds i8, ptr %5, i64 8
  store i32 %31, ptr %32, align 8
  %33 = and i32 %31, 65280
  %.not49 = icmp eq i32 %33, 0
  br i1 %.not49, label %37, label %34

34:                                               ; preds = %28
  %35 = load i32, ptr %29, align 4
  %36 = add i32 %35, 1
  store i32 %36, ptr %29, align 4
  br label %37

37:                                               ; preds = %28, %34
  %38 = load ptr, ptr getelementptr inbounds (%struct._zend_executor_globals, ptr @executor_globals, i64 0, i32 17), align 8
  %39 = getelementptr inbounds i8, ptr %38, i64 24
  %40 = load ptr, ptr %39, align 8
  %41 = getelementptr inbounds i8, ptr %40, i64 4
  %42 = load i32, ptr %41, align 4
  %43 = icmp slt i32 %42, 0
  %44 = call zeroext i1 @zend_verify_property_type(ptr noundef nonnull %23, ptr noundef nonnull %5, i1 noundef zeroext %43) #16
  br i1 %44, label %46, label %45

45:                                               ; preds = %37
  call void @zval_ptr_dtor(ptr noundef nonnull %5) #16
  br label %54

46:                                               ; preds = %37
  %47 = load ptr, ptr %13, align 8
  %48 = call i32 %47(ptr noundef nonnull %6, ptr noundef nonnull %5) #16
  call void @zval_ptr_dtor(ptr noundef nonnull %5) #16
  br label %54

49:                                               ; preds = %24, %22
  %50 = load ptr, ptr %13, align 8
  %51 = tail call i32 %50(ptr noundef nonnull %6, ptr noundef %2) #16
  br label %54

52:                                               ; preds = %4, %9
  %53 = tail call ptr @zend_std_write_property(ptr noundef nonnull %0, ptr noundef %1, ptr noundef %2, ptr noundef %3) #16
  br label %54

54:                                               ; preds = %46, %49, %52, %45, %17
  %.039 = phi ptr [ getelementptr inbounds (%struct._zend_executor_globals, ptr @executor_globals, i64 0, i32 1), %45 ], [ getelementptr inbounds (%struct._zend_executor_globals, ptr @executor_globals, i64 0, i32 1), %17 ], [ %53, %52 ], [ %2, %49 ], [ %2, %46 ]
  ret ptr %.039
}